; Function Attrs: mustprogress nounwind uwtable
define dso_local void @_ZN4node10contextify16ContextifyScriptC2EPNS_11EnvironmentEN2v85LocalINS4_6ObjectEEE(ptr noundef nonnull align 8 dereferenceable(40) %this, ptr nocapture noundef readonly %env, ptr %object.coerce) unnamed_addr #3 align 2 {
entry:
  %principal_realm_.i.i = getelementptr inbounds i8, ptr %env, i64 2728
  %0 = load ptr, ptr %principal_realm_.i.i, align 8
  tail call void @_ZN4node10BaseObjectC2EPNS_5RealmEN2v85LocalINS3_6ObjectEEE(ptr noundef nonnull align 8 dereferenceable(32) %this, ptr noundef %0, ptr %object.coerce) #21
  store ptr getelementptr inbounds ({ [19 x ptr] }, ptr @_ZTVN4node10contextify16ContextifyScriptE, i64 0, i32 0, i64 2), ptr %this, align 8
  %script_ = getelementptr inbounds i8, ptr %this, i64 32
  store ptr null, ptr %script_, align 8
  tail call void @_ZN4node10BaseObject8MakeWeakEv(ptr noundef nonnull align 8 dereferenceable(32) %this) #21
  ret void
}